; Function Attrs: mustprogress nounwind uwtable
define dso_local noundef ptr @_ZN4llvm16simplifyFNegInstEPNS_5ValueENS_13FastMathFlagsERKNS_13SimplifyQueryE(ptr noundef %0, i32 %1, ptr nocapture noundef nonnull readonly align 8 dereferenceable(58) %2) local_unnamed_addr #0 {
  %4 = alloca ptr, align 8
  %5 = alloca %"struct.llvm::PatternMatch::FNeg_match.398", align 8
  %.val = load ptr, ptr %2, align 8
  call void @llvm.lifetime.start.p0(i64 8, ptr nonnull %4)
  call void @llvm.lifetime.start.p0(i64 8, ptr nonnull %5)
  %6 = load i8, ptr %0, align 8
  %7 = icmp ugt i8 %6, 21
  br i1 %7, label %_ZL12foldConstantN4llvm11Instruction8UnaryOpsERPNS_5ValueERKNS_13SimplifyQueryE.exit.thread.i, label %_ZL12foldConstantN4llvm11Instruction8UnaryOpsERPNS_5ValueERKNS_13SimplifyQueryE.exit.i

_ZL12foldConstantN4llvm11Instruction8UnaryOpsERPNS_5ValueERKNS_13SimplifyQueryE.exit.i: ; preds = %3
  %8 = tail call noundef ptr @_ZN4llvm26ConstantFoldUnaryOpOperandEjPNS_8ConstantERKNS_10DataLayoutE(i32 noundef 12, ptr noundef nonnull %0, ptr noundef nonnull align 8 dereferenceable(512) %.val) #18
  %.not.i = icmp eq ptr %8, null
  br i1 %.not.i, label %_ZL12foldConstantN4llvm11Instruction8UnaryOpsERPNS_5ValueERKNS_13SimplifyQueryE.exit.thread.i, label %_ZL16simplifyFNegInstPN4llvm5ValueENS_13FastMathFlagsERKNS_13SimplifyQueryEj.exit

_ZL12foldConstantN4llvm11Instruction8UnaryOpsERPNS_5ValueERKNS_13SimplifyQueryE.exit.thread.i: ; preds = %_ZL12foldConstantN4llvm11Instruction8UnaryOpsERPNS_5ValueERKNS_13SimplifyQueryE.exit.i, %3
  store ptr %4, ptr %5, align 8
  %9 = call noundef zeroext i1 @_ZN4llvm12PatternMatch10FNeg_matchINS0_7bind_tyINS_5ValueEEEE5matchIS3_EEbPT_(ptr noundef nonnull align 8 dereferenceable(8) %5, ptr noundef nonnull %0)
  %10 = load ptr, ptr %4, align 8
  %spec.select.i = select i1 %9, ptr %10, ptr null
  br label %_ZL16simplifyFNegInstPN4llvm5ValueENS_13FastMathFlagsERKNS_13SimplifyQueryEj.exit

_ZL16simplifyFNegInstPN4llvm5ValueENS_13FastMathFlagsERKNS_13SimplifyQueryEj.exit: ; preds = %_ZL12foldConstantN4llvm11Instruction8UnaryOpsERPNS_5ValueERKNS_13SimplifyQueryE.exit.i, %_ZL12foldConstantN4llvm11Instruction8UnaryOpsERPNS_5ValueERKNS_13SimplifyQueryE.exit.thread.i
  %.0.i = phi ptr [ %8, %_ZL12foldConstantN4llvm11Instruction8UnaryOpsERPNS_5ValueERKNS_13SimplifyQueryE.exit.i ], [ %spec.select.i, %_ZL12foldConstantN4llvm11Instruction8UnaryOpsERPNS_5ValueERKNS_13SimplifyQueryE.exit.thread.i ]
  call void @llvm.lifetime.end.p0(i64 8, ptr nonnull %4)
  call void @llvm.lifetime.end.p0(i64 8, ptr nonnull %5)
  ret ptr %.0.i
}